; Function Attrs: mustprogress nounwind uwtable
define dso_local noundef i64 @_ZNK4llvm3pdb7PDBFile11getFileSizeEv(ptr nocapture noundef nonnull readonly align 8 dereferenceable(280) %0) local_unnamed_addr #0 align 2 {
  %2 = getelementptr inbounds nuw i8, ptr %0, i64 48
  %3 = load ptr, ptr %2, align 8
  %4 = load ptr, ptr %3, align 8
  %5 = getelementptr inbounds i8, ptr %4, i64 40
  %6 = load ptr, ptr %5, align 8
  %7 = tail call noundef i64 %6(ptr noundef nonnull align 8 dereferenceable(8) %3) #18
  ret i64 %7
}